; Function Attrs: mustprogress uwtable
define hidden noundef ptr @_ZN7datalog12rule_manager2mkEPKNS_4ruleEP3appRK6symbol(ptr nocapture noundef nonnull readonly align 8 dereferenceable(1368) %this, ptr nocapture noundef readonly %source, ptr noundef %new_head, ptr nocapture noundef nonnull readonly align 8 dereferenceable(8) %name) local_unnamed_addr #3 align 2 {
entry:
  %m_tail_size.i = getelementptr inbounds i8, ptr %source, i64 56
  %0 = load i32, ptr %m_tail_size.i, align 8
  %mul.i = shl i32 %0, 3
  %add.i = add i32 %mul.i, 80
  %1 = load ptr, ptr %this, align 8
  %m_alloc.i = getelementptr inbounds i8, ptr %1, i64 40
  %conv = zext i32 %add.i to i64
  %call4 = tail call noundef ptr @_ZN22small_object_allocator8allocateEm(ptr noundef nonnull align 8 dereferenceable(520) %m_alloc.i, i64 noundef %conv)
  %m_current_cost.i.i = getelementptr inbounds i8, ptr %call4, i64 16
  tail call void @llvm.memset.p0.i64(ptr noundef nonnull align 8 dereferenceable(16) %call4, i8 0, i64 16, i1 false)
  tail call void @_ZN7datalog5costsC1Ev(ptr noundef nonnull align 4 dereferenceable(8) %m_current_cost.i.i)
  %m_processed_cost.i.i = getelementptr inbounds i8, ptr %call4, i64 24
  tail call void @_ZN7datalog5costsC1Ev(ptr noundef nonnull align 4 dereferenceable(8) %m_processed_cost.i.i)
  %m_being_recorded.i.i = getelementptr inbounds i8, ptr %call4, i64 32
  store i8 0, ptr %m_being_recorded.i.i, align 8
  %m_head.i = getelementptr inbounds i8, ptr %call4, i64 40
  %m_name.i = getelementptr inbounds i8, ptr %call4, i64 72
  %2 = getelementptr inbounds i8, ptr %call4, i64 48
  tail call void @llvm.memset.p0.i64(ptr noundef nonnull align 8 dereferenceable(32) %2, i8 0, i64 24, i1 false)
  %3 = load i64, ptr @_ZN6symbol4nullE, align 8
  store i64 %3, ptr %m_name.i, align 8
  store ptr %new_head, ptr %m_head.i, align 8
  %4 = load i64, ptr %name, align 8
  store i64 %4, ptr %m_name.i, align 8
  %m_tail_size = getelementptr inbounds i8, ptr %call4, i64 56
  store i32 %0, ptr %m_tail_size, align 8
  %m_positive_cnt = getelementptr inbounds i8, ptr %source, i64 64
  %5 = load i32, ptr %m_positive_cnt, align 8
  %m_positive_cnt5 = getelementptr inbounds i8, ptr %call4, i64 64
  store i32 %5, ptr %m_positive_cnt5, align 8
  %m_uninterp_cnt = getelementptr inbounds i8, ptr %source, i64 68
  %6 = load i32, ptr %m_uninterp_cnt, align 4
  %m_uninterp_cnt6 = getelementptr inbounds i8, ptr %call4, i64 68
  store i32 %6, ptr %m_uninterp_cnt6, align 4
  %m_proof = getelementptr inbounds i8, ptr %call4, i64 48
  store ptr null, ptr %m_proof, align 8
  %tobool.not.i = icmp eq ptr %new_head, null
  br i1 %tobool.not.i, label %_ZN11ast_manager7inc_refEP3ast.exit, label %if.then.i

if.then.i:                                        ; preds = %entry
  %m_ref_count.i.i = getelementptr inbounds i8, ptr %new_head, i64 8
  %7 = load i32, ptr %m_ref_count.i.i, align 4
  %inc.i.i = add i32 %7, 1
  store i32 %inc.i.i, ptr %m_ref_count.i.i, align 4
  br label %_ZN11ast_manager7inc_refEP3ast.exit

_ZN11ast_manager7inc_refEP3ast.exit:              ; preds = %entry, %if.then.i
  %cmp24.not = icmp eq i32 %0, 0
  br i1 %cmp24.not, label %for.end, label %for.body.lr.ph

for.body.lr.ph:                                   ; preds = %_ZN11ast_manager7inc_refEP3ast.exit
  %m_tail = getelementptr inbounds i8, ptr %source, i64 80
  %m_tail9 = getelementptr inbounds i8, ptr %call4, i64 80
  %wide.trip.count = zext i32 %0 to i64
  br label %for.body

for.body:                                         ; preds = %for.body.lr.ph, %_ZN11ast_manager7inc_refEP3ast.exit23
  %indvars.iv = phi i64 [ 0, %for.body.lr.ph ], [ %indvars.iv.next, %_ZN11ast_manager7inc_refEP3ast.exit23 ]
  %arrayidx = getelementptr inbounds [0 x ptr], ptr %m_tail, i64 0, i64 %indvars.iv
  %8 = load ptr, ptr %arrayidx, align 8
  %arrayidx11 = getelementptr inbounds [0 x ptr], ptr %m_tail9, i64 0, i64 %indvars.iv
  store ptr %8, ptr %arrayidx11, align 8
  %9 = ptrtoint ptr %8 to i64
  %and.i = and i64 %9, -8
  %tobool.not.i19 = icmp eq i64 %and.i, 0
  br i1 %tobool.not.i19, label %_ZN11ast_manager7inc_refEP3ast.exit23, label %if.then.i20

if.then.i20:                                      ; preds = %for.body
  %10 = inttoptr i64 %and.i to ptr
  %m_ref_count.i.i21 = getelementptr inbounds i8, ptr %10, i64 8
  %11 = load i32, ptr %m_ref_count.i.i21, align 8
  %inc.i.i22 = add i32 %11, 1
  store i32 %inc.i.i22, ptr %m_ref_count.i.i21, align 8
  br label %_ZN11ast_manager7inc_refEP3ast.exit23

_ZN11ast_manager7inc_refEP3ast.exit23:            ; preds = %for.body, %if.then.i20
  %indvars.iv.next = add nuw nsw i64 %indvars.iv, 1
  %exitcond.not = icmp eq i64 %indvars.iv.next, %wide.trip.count
  br i1 %exitcond.not, label %for.end, label %for.body, !llvm.loop !69

for.end:                                          ; preds = %_ZN11ast_manager7inc_refEP3ast.exit23, %_ZN11ast_manager7inc_refEP3ast.exit
  ret ptr %call4
}